target datalayout = "e-m:e-p270:32:32-p271:32:32-p272:64:64-i64:64-i128:128-f80:128-n8:16:32:64-S128"
target triple = "x86_64-pc-linux-gnu"

@.str.13 = private unnamed_addr constant [6 x i8] c".phar\00", align 1

; Function Attrs: nounwind uwtable
define internal i32 @phar_check_str(ptr noundef %0, ptr noundef %1, i64 noundef %2, i32 noundef %3, i32 noundef %4) #0 {
  %6 = alloca i32, align 4
  %7 = alloca ptr, align 8
  %8 = alloca ptr, align 8
  %9 = alloca i64, align 8
  %10 = alloca i32, align 4
  %11 = alloca i32, align 4
  %12 = alloca ptr, align 8
  store ptr %0, ptr %7, align 8
  store ptr %1, ptr %8, align 8
  store i64 %2, ptr %9, align 8
  store i32 %3, ptr %10, align 4
  store i32 %4, ptr %11, align 4
  %13 = load i64, ptr %9, align 8
  %14 = icmp uge i64 %13, 50
  br i1 %14, label %15, label %16

15:                                               ; preds = %5
  store i32 -1, ptr %6, align 4
  br label %153

16:                                               ; preds = %5
  %17 = load i32, ptr %10, align 4
  %18 = icmp eq i32 %17, 1
  br i1 %18, label %19, label %69

19:                                               ; preds = %16
  %20 = load ptr, ptr %8, align 8
  %21 = call ptr @strstr(ptr noundef %20, ptr noundef @.str.13) #14
  store ptr %21, ptr %12, align 8
  %22 = load ptr, ptr %12, align 8
  %23 = icmp ne ptr %22, null
  br i1 %23, label %24, label %62

24:                                               ; preds = %19
  %25 = load ptr, ptr %12, align 8
  %26 = load ptr, ptr %8, align 8
  %27 = icmp ne ptr %25, %26
  br i1 %27, label %28, label %34

28:                                               ; preds = %24
  %29 = load ptr, ptr %12, align 8
  %30 = getelementptr inbounds i8, ptr %29, i64 -1
  %31 = load i8, ptr %30, align 1
  %32 = sext i8 %31 to i32
  %33 = icmp eq i32 %32, 47
  br i1 %33, label %62, label %34

34:                                               ; preds = %28, %24
  %35 = load i64, ptr %9, align 8
  %36 = load ptr, ptr %12, align 8
  %37 = load ptr, ptr %8, align 8
  %38 = ptrtoint ptr %36 to i64
  %39 = ptrtoint ptr %37 to i64
  %40 = sub i64 %38, %39
  %41 = sub i64 %35, %40
  %42 = icmp ult i64 %41, 5
  br i1 %42, label %62, label %43

43:                                               ; preds = %34
  %44 = load ptr, ptr %12, align 8
  %45 = getelementptr inbounds i8, ptr %44, i64 5
  store ptr %45, ptr %12, align 8
  %46 = icmp ne ptr %45, null
  br i1 %46, label %47, label %62

47:                                               ; preds = %43
  %48 = load ptr, ptr %12, align 8
  %49 = load i8, ptr %48, align 1
  %50 = sext i8 %49 to i32
  %51 = icmp eq i32 %50, 0
  br i1 %51, label %63, label %52

52:                                               ; preds = %47
  %53 = load ptr, ptr %12, align 8
  %54 = load i8, ptr %53, align 1
  %55 = sext i8 %54 to i32
  %56 = icmp eq i32 %55, 47
  br i1 %56, label %63, label %57

57:                                               ; preds = %52
  %58 = load ptr, ptr %12, align 8
  %59 = load i8, ptr %58, align 1
  %60 = sext i8 %59 to i32
  %61 = icmp eq i32 %60, 46
  br i1 %61, label %63, label %62

62:                                               ; preds = %57, %43, %34, %28, %19
  store i32 -1, ptr %6, align 4
  br label %153

63:                                               ; preds = %57, %52, %47
  %64 = load ptr, ptr %7, align 8
  %65 = load ptr, ptr %8, align 8
  %66 = load i64, ptr %9, align 8
  %67 = load i32, ptr %11, align 4
  %68 = call i32 @phar_analyze_path(ptr noundef %64, ptr noundef %65, i64 noundef %66, i32 noundef %67)
  store i32 %68, ptr %6, align 4
  br label %153

69:                                               ; preds = %16
  %70 = load i32, ptr %10, align 4
  %71 = icmp ne i32 %70, 0
  br i1 %71, label %127, label %72

72:                                               ; preds = %69
  %73 = load ptr, ptr %8, align 8
  %74 = call ptr @strstr(ptr noundef %73, ptr noundef @.str.13) #14
  store ptr %74, ptr %12, align 8
  %75 = load ptr, ptr %12, align 8
  %76 = icmp ne ptr %75, null
  br i1 %76, label %77, label %102

77:                                               ; preds = %72
  %78 = load ptr, ptr %12, align 8
  %79 = getelementptr inbounds i8, ptr %78, i64 -1
  %80 = load i8, ptr %79, align 1
  %81 = sext i8 %80 to i32
  %82 = icmp ne i32 %81, 47
  br i1 %82, label %83, label %102

83:                                               ; preds = %77
  %84 = load ptr, ptr %12, align 8
  %85 = getelementptr inbounds i8, ptr %84, i64 5
  store ptr %85, ptr %12, align 8
  %86 = icmp ne ptr %85, null
  br i1 %86, label %87, label %102

87:                                               ; preds = %83
  %88 = load ptr, ptr %12, align 8
  %89 = load i8, ptr %88, align 1
  %90 = sext i8 %89 to i32
  %91 = icmp eq i32 %90, 0
  br i1 %91, label %126, label %92

92:                                               ; preds = %87
  %93 = load ptr, ptr %12, align 8
  %94 = load i8, ptr %93, align 1
  %95 = sext i8 %94 to i32
  %96 = icmp eq i32 %95, 47
  br i1 %96, label %126, label %97

97:                                               ; preds = %92
  %98 = load ptr, ptr %12, align 8
  %99 = load i8, ptr %98, align 1
  %100 = sext i8 %99 to i32
  %101 = icmp eq i32 %100, 46
  br i1 %101, label %126, label %102

102:                                              ; preds = %97, %83, %77, %72
  %103 = load ptr, ptr %8, align 8
  %104 = getelementptr inbounds i8, ptr %103, i64 1
  %105 = load i8, ptr %104, align 1
  %106 = sext i8 %105 to i32
  %107 = icmp ne i32 %106, 46
  br i1 %107, label %108, label %126

108:                                              ; preds = %102
  %109 = load ptr, ptr %8, align 8
  %110 = getelementptr inbounds i8, ptr %109, i64 1
  %111 = load i8, ptr %110, align 1
  %112 = sext i8 %111 to i32
  %113 = icmp ne i32 %112, 47
  br i1 %113, label %114, label %126

114:                                              ; preds = %108
  %115 = load ptr, ptr %8, align 8
  %116 = getelementptr inbounds i8, ptr %115, i64 1
  %117 = load i8, ptr %116, align 1
  %118 = sext i8 %117 to i32
  %119 = icmp ne i32 %118, 0
  br i1 %119, label %120, label %126

120:                                              ; preds = %114
  %121 = load ptr, ptr %7, align 8
  %122 = load ptr, ptr %8, align 8
  %123 = load i64, ptr %9, align 8
  %124 = load i32, ptr %11, align 4
  %125 = call i32 @phar_analyze_path(ptr noundef %121, ptr noundef %122, i64 noundef %123, i32 noundef %124)
  store i32 %125, ptr %6, align 4
  br label %153

126:                                              ; preds = %114, %108, %102, %97, %92, %87
  br label %152

127:                                              ; preds = %69
  %128 = load ptr, ptr %8, align 8
  %129 = getelementptr inbounds i8, ptr %128, i64 1
  %130 = load i8, ptr %129, align 1
  %131 = sext i8 %130 to i32
  %132 = icmp ne i32 %131, 46
  br i1 %132, label %133, label %151

133:                                              ; preds = %127
  %134 = load ptr, ptr %8, align 8
  %135 = getelementptr inbounds i8, ptr %134, i64 1
  %136 = load i8, ptr %135, align 1
  %137 = sext i8 %136 to i32
  %138 = icmp ne i32 %137, 47
  br i1 %138, label %139, label %151

139:                                              ; preds = %133
  %140 = load ptr, ptr %8, align 8
  %141 = getelementptr inbounds i8, ptr %140, i64 1
  %142 = load i8, ptr %141, align 1
  %143 = sext i8 %142 to i32
  %144 = icmp ne i32 %143, 0
  br i1 %144, label %145, label %151

145:                                              ; preds = %139
  %146 = load ptr, ptr %7, align 8
  %147 = load ptr, ptr %8, align 8
  %148 = load i64, ptr %9, align 8
  %149 = load i32, ptr %11, align 4
  %150 = call i32 @phar_analyze_path(ptr noundef %146, ptr noundef %147, i64 noundef %148, i32 noundef %149)
  store i32 %150, ptr %6, align 4
  br label %153

151:                                              ; preds = %139, %133, %127
  br label %152

152:                                              ; preds = %151, %126
  store i32 -1, ptr %6, align 4
  br label %153

153:                                              ; preds = %152, %145, %120, %63, %62, %15
  %154 = load i32, ptr %6, align 4
  ret i32 %154
}