; Function Attrs: nounwind uwtable
define internal fastcc i32 @phar_check_str(ptr noundef %0, ptr noundef %1, i64 noundef %2, i32 noundef %3, i32 noundef %4) unnamed_addr #0 {
  %6 = icmp ugt i64 %2, 49
  br i1 %6, label %43, label %7

7:                                                ; preds = %5
  switch i32 %3, label %38 [
    i32 1, label %8
    i32 0, label %25
  ]

8:                                                ; preds = %7
  %9 = tail call ptr @strstr(ptr noundef nonnull dereferenceable(1) %1, ptr noundef nonnull dereferenceable(1) @.str.13) #24
  %.not56 = icmp eq ptr %9, null
  br i1 %.not56, label %43, label %10

10:                                               ; preds = %8
  %.not57 = icmp eq ptr %9, %1
  br i1 %.not57, label %15, label %11

11:                                               ; preds = %10
  %12 = getelementptr inbounds i8, ptr %9, i64 -1
  %13 = load i8, ptr %12, align 1
  %14 = icmp eq i8 %13, 47
  br i1 %14, label %43, label %15

15:                                               ; preds = %11, %10
  %16 = ptrtoint ptr %9 to i64
  %17 = ptrtoint ptr %1 to i64
  %.neg = add i64 %17, %2
  %18 = sub i64 %.neg, %16
  %19 = icmp ult i64 %18, 5
  br i1 %19, label %43, label %20

20:                                               ; preds = %15
  %21 = getelementptr inbounds i8, ptr %9, i64 5
  %22 = load i8, ptr %21, align 1
  switch i8 %22, label %43 [
    i8 0, label %23
    i8 47, label %23
    i8 46, label %23
  ]

23:                                               ; preds = %20, %20, %20
  %24 = tail call fastcc i32 @phar_analyze_path(ptr noundef %0, ptr noundef %1, i64 noundef %2, i32 noundef %4), !range !5
  br label %43

25:                                               ; preds = %7
  %26 = tail call ptr @strstr(ptr noundef nonnull dereferenceable(1) %1, ptr noundef nonnull dereferenceable(1) @.str.13) #24
  %.not48 = icmp eq ptr %26, null
  br i1 %.not48, label %33, label %27

27:                                               ; preds = %25
  %28 = getelementptr inbounds i8, ptr %26, i64 -1
  %29 = load i8, ptr %28, align 1
  %.not49 = icmp eq i8 %29, 47
  br i1 %.not49, label %33, label %30

30:                                               ; preds = %27
  %31 = getelementptr inbounds i8, ptr %26, i64 5
  %32 = load i8, ptr %31, align 1
  switch i8 %32, label %33 [
    i8 0, label %43
    i8 47, label %43
    i8 46, label %43
  ]

33:                                               ; preds = %30, %27, %25
  %34 = getelementptr inbounds i8, ptr %1, i64 1
  %35 = load i8, ptr %34, align 1
  switch i8 %35, label %36 [
    i8 46, label %43
    i8 47, label %43
    i8 0, label %43
  ]

36:                                               ; preds = %33
  %37 = tail call fastcc i32 @phar_analyze_path(ptr noundef %0, ptr noundef nonnull %1, i64 noundef %2, i32 noundef %4), !range !5
  br label %43

38:                                               ; preds = %7
  %39 = getelementptr inbounds i8, ptr %1, i64 1
  %40 = load i8, ptr %39, align 1
  switch i8 %40, label %41 [
    i8 46, label %43
    i8 47, label %43
    i8 0, label %43
  ]

41:                                               ; preds = %38
  %42 = tail call fastcc i32 @phar_analyze_path(ptr noundef %0, ptr noundef nonnull %1, i64 noundef %2, i32 noundef %4), !range !5
  br label %43

43:                                               ; preds = %30, %30, %30, %33, %33, %33, %38, %38, %38, %8, %11, %15, %20, %5, %41, %36, %23
  %.0 = phi i32 [ %24, %23 ], [ %42, %41 ], [ %37, %36 ], [ -1, %5 ], [ -1, %20 ], [ -1, %15 ], [ -1, %11 ], [ -1, %8 ], [ -1, %38 ], [ -1, %38 ], [ -1, %38 ], [ -1, %33 ], [ -1, %33 ], [ -1, %33 ], [ -1, %30 ], [ -1, %30 ], [ -1, %30 ]
  ret i32 %.0
}